(dp1
VSTEEP: Supporting Technology Enhanced Education Projects
p2
L137L
sVHarry van de Wouw
p3
L308L
sVVideoConferencing
p4
L190L
sVInteractief college voor grote groepen met stemsysteem en webcolleges (onderwijs herontwerp)
p5
L6L
sVCould you add a link to the open source code?
p6
L101L
sVShirly Berends-Montero Quesada
p7
L28L
sVThemabijeenkomst: Wiskunde als bachelor steunvak
p8
L178L
sVInteractieve B&#x00e8;ta Leeromgeving (IBL)
p9
L78L
sVSape Kinderman
p10
L276L
sVNoor Christoph
p11
L237L
sVTaylor Philip
p12
L246L
sVZijn er nieuwe voorbeelden bij de FNWI over peer-instruction?
p13
L9L
sVe-Learning in Chemistry
p14
L151L
sVPeer review
p15
L278L
sVShakespeak - FNWI
p16
L24L
sVWhat is TurnitIn?
p17
L192L
sVThomas Mensink
p18
L225L
sVBloom Taxonomy 
p19
L80L
sVMonique Diks
p20
L168L
sVGroup projects
p21
L144L
sVVadim Zaytsev
p22
L253L
sVWat is het verschil tussen Learning Analytics en TTL
p23
L5L
sVTurnitin
p24
L312L
sVWhich cloud voting systems can I use? 
p25
L34L
sVSilvija Markic
p26
L84L
sVQuestionMark Perception (QMP)
p27
L68L
sVAmeen Farouk Fahmy
p28
L233L
sVExpertise in Chemistry Teaching - ECTN database
p29
L77L
sVJournalist Method
p30
L147L
sVThink-pair-share
p31
L152L
sVLecturnity
p32
L56L
sVSander Latour
p33
L290L
sVWebcolleges (UvA)
p34
L81L
sVTest item analysis
p35
L283L
sVTeaching with Analogies (Methaphors)
p36
L196L
sVLecture Demonstrations
p37
L155L
sVJorn Blom
p38
L242L
sVWeblectures in AI
p39
L43L
sVMonique Zweers
p40
L208L
sVIncomplete Hand-outs
p41
L154L
sVAbdelkarim Bellafkih
p42
L184L
sVHow can I Ask a question?
p43
L89L
sVBas Giesbers
p44
L257L
sVHana &#x010c;trn&#x00e1;ctov&#x00e1;
p45
L247L
sVReliability of an assessment
p46
L279L
sVInteractive lecturing
p47
L150L
sVFloris van Blankenstein
p48
L294L
sVHeinz Krebs
p49
L254L
sVChristine O'Connor
p50
L274L
sVStephan Pronk
p51
L239L
sVGebrekidan Tesfamariam
p52
L255L
sVContext, Problem-Based Learning (C-PBL)
p53
L270L
sVStudio course
p54
L63L
sVPaola Ambrogi
p55
L134L
sVErik van Heumen
p56
L228L
sVMarvin Allee
p57
L240L
sVTurnitIn licence at the UvA
p58
L319L
sVKees van Wensen
p59
L244L
sVsaloway1
p60
L314L
sVEmilia Bertolo
p61
L262L
sVStudent portfolio
p62
L145L
sVAuke Folkerts
p63
L215L
sVRole-Play
p64
L148L
sVChiel Kooijman
p65
L245L
sVEurolecturer
p66
L104L
sVWeblectures
p67
L94L
sVMaurice Koster
p68
L291L
sVSOWISO
p69
L57L
sVJoyce Nijkamp
p70
L282L
sVMarina Stojanovska
p71
L230L
sVClickers not working?
p72
L23L
sVAlexia Luising
p73
L298L
sVOral presentations
p74
L141L
sVHerma Roebertsen
p75
L302L
sVMiltiades (Milt) Karayannis
p76
L194L
sVStudent centred teaching 
p77
L109L
sVHans Breeuwer
p78
L320L
sVInteractive Teaching - Methodology
p79
L93L
sVClaire McDonnell
p80
L91L
sVHoe exporteer ik de data na een stemsesstie met clickers?
p81
L32L
sVIs het volgen van de toetscyclus verplicht?
p82
L174L
sVLecture Breaks
p83
L140L
sVBill Byers 
p84
L60L
sVTentamenlade2.5
p85
L39L
sVTentamenlade
p86
L95L
sVCentrale inleverplek voor open opdrachen - analyse van de antwoorden door de docent
p87
L27L
sVMATH taxonomy
p88
L107L
sVTentamenlade Natuurkunde
p89
L90L
sVChris Blom
p90
L261L
sVEphorus
p91
L85L
sVUsing voting in the classroom
p92
L54L
sVEgbert Mulder
p93
L235L
sVAnthony Smith
p94
L118L
sVRick Vermin
p95
L197L
sVChoosing a form of assessment
p96
L204L
sVSALIS
p97
L114L
sVShakespeak
p98
L87L
sVFrank Nack
p99
L313L
sVMatthijs Vlaar
p100
L227L
sVDe toetscyclus
p101
L173L
sVMichael Seery
p102
L92L
sVFred Bouwer
p103
L181L
sVBKO
p104
L48L
sVLearning on Stations
p105
L139L
sVAfstandOnderwijsEnZelfstandigLeren
p106
L49L
sVPeter van Baalen
p107
L267L
sVMatti Blok
p108
L295L
sVLow-Cost Experiments
p109
L149L
sVNikki Verseput
p110
L304L
sVAndr&#x00e9; Heck
p111
L2L
sVJolien Kerssens
p112
L214L
sVDragica Trivi&#x0107;
p113
L159L
sVWorkbook on Organic Chemistry
p114
L143L
sVWerkcollege met stemkastjes
p115
L26L
sVTable of specification
p116
L265L
sVOliva Peeters
p117
L300L
sVAndy Pimentel
p118
L216L
sVSURFconext 
p119
L106L
sVOpen-ended experiments
p120
L146L
sVFormulating learning objectives
p121
L79L
sVOnline Schakelen
p122
L21L
sVTurnitIn
p123
L318L
sVArnoud Visser
p124
L42L
sVIs there an English version in Tentamenlade?
p125
L102L
sVJoris Buis
p126
L311L
sVHoe kan ik aan stemkastjes komen?
p127
L8L
sVTest
p128
L285L
sVToetsenEnToetsgestuurdLeren
p129
L50L
sVPeer-instruction
p130
L158L
sVSmartVoting
p131
L12L
sVTPACK - E-Learning Cookbook
p132
L45L
sVTim Sijstermans
p133
L241L
sVEric Schaer
p134
L259L
sVHans-Georg K&#x00f8;ller
p135
L119L
sVAnalogies (Methaphors)
p136
L195L
sVKnowledge clips for active learning
p137
L69L
sVChristel Verberg
p138
L238L
sVCloud voting systems
p139
L55L
sVPlagiarism Control
p140
L86L
sVPita Vandevelde
p141
L129L
sVClickers - Stemkastjes
p142
L58L
sVSusan Voogd
p143
L203L
sVIwona Maciejowska
p144
L127L
sVN. Brouwer-Zupancic
p145
L169L
sVMichele A. Floriano
p146
L273L
sVHanneke Braaksma
p147
L296L
sVGustavo Avitabile
p148
L96L
sVAudience Response Systems
p149
L316L
sVWerken jullie ook met Starfish
p150
L115L
sVMustafa S&#x00f6;zbilir
p151
L161L
sVChemistry Quality Eurolabels
p152
L99L
sVNatasa Brouwer
p153
L1L
sVSuresh Ramsuroop
p154
L231L
sVKim de Crom
p155
L236L
sVPeer-assessment
p156
L172L
sVVladimir Petru&#x0161;evski
p157
L224L
sVOnline Support and Online Assessment for Teaching and Learning Chemistry
p158
L98L
sVJeroen Goedkoop
p159
L207L
sVWebEx
p160
L191L
sVPaul Yates
p161
L105L
sVCan I use different types of clickers in the same voting session?
p162
L22L
sVWilly Metzger
p163
L272L
sVCommunity-based Learning
p164
L251L
sVProcwise - demonstratie
p165
L292L
sVTeaching by Questioning
p166
L153L
sVFloris van Lieshout
p167
L210L
sVHoe kan ik inloggen in Tentamenlade?
p168
L132L
sVAndrea Haker
p169
L20L
sVLaura Boekel
p170
L256L
sVStemkastjes - Clickers: Faculty of Science, UvA
p171
L211L
sVSonja Wagenaar
p172
L305L
sVLearning Analytics
p173
L167L
sVBernold Hasenknopf
p174
L250L
sVWorkshop Stemmen tijdens college
p175
L31L
sVGalina Seitmagzimova
p176
L121L
sVStarfish
p177
L248L
sVBRAVO
p178
L38L
sVTPACK
p179
L51L
sVRex Valkering
p180
L226L
sVJaap Mulder
p181
L299L
sVldgreef1
p182
L310L
sVInge Gutschoven
p183
L186L
sVKaren van Oyen
p184
L315L
sVWorkplace Learning
p185
L280L
sVGerrit Oomens
p186
L281L
sVHoe zit het met auteursrechten bij gebruik van video?
p187
L83L
sVModule Supervising Students in Distance Learning
p188
L36L
sVAnna Beukenhorst
p189
L252L
sVBas Toeter
p190
L234L
sVEmilie van Hooft
p191
L297L
sVAdalgard Willemsma
p192
L307L
sVVirtual Laboratory in Chemical Engineering
p193
L142L
sVJoost Reek
p194
L223L
sVHoe kom ik op iTunes U?
p195
L82L
sVLabster
p196
L264L
sVR. de Vries
p197
L176L
sVErwin van Vliet
p198
L3L
sVWorkskop Activerend college met inzet van ICT
p199
L112L
sVEChemTest
p200
L67L
sVDhyan Peeters
p201
L301L
sVECTN
p202
L64L
sVLets Improve Our Assessment Competences (LIOAC)
p203
L271L
sVFollowing the assessment cycle
p204
L212L
sVFormatieve meerkeuze toetsen om begin kennisniveau te toetsen
p205
L29L
sVCOACH
p206
L11L
sVVideoconferencing using WebEx at UvA
p207
L111L
sVCarrie van Weert
p208
L306L
sVFlippedClassroom
p209
L157L
sVMarielle van Staalen
p210
L189L
sVIs there a project document / proposal available?
p211
L76L
sVAgnes Schreiner
p212
L317L
sVAre there ways to track this using Learning Analytics?
p213
L10L
sVSamantha Pugh
p214
L309L
sVWhat is iThenitcate?
p215
L193L
sVRay Wallace
p216
L275L
sVHazel J. Wilkins 
p217
L65L
sVIneke Verheul
p218
L303L
s.